target datalayout = "e-m:e-p270:32:32-p271:32:32-p272:64:64-i64:64-i128:128-f80:128-n8:16:32:64-S128"
target triple = "x86_64-unknown-linux-gnu"

%struct.train_state = type { ptr, i64, i64, i64, i64, i64, %"class.std::__cxx11::basic_string", %"class.std::__cxx11::basic_string", i64, i64 }
%"class.std::__cxx11::basic_string" = type { %"struct.std::__cxx11::basic_string<char>::_Alloc_hider", i64, %union.anon }
%"struct.std::__cxx11::basic_string<char>::_Alloc_hider" = type { ptr }
%union.anon = type { i64, [8 x i8] }

@_ZL28LLM_KV_TRAINING_FILE_VERSION = internal global ptr @.str.190, align 8
@_ZL31LLM_KV_TRAINING_ITERATION_COUNT = internal global ptr @.str.191, align 8
@_ZL28LLM_KV_TRAINING_SAMPLE_COUNT = internal global ptr @.str.192, align 8
@_ZL27LLM_KV_TRAINING_TOKEN_COUNT = internal global ptr @.str.193, align 8
@_ZL27LLM_KV_TRAINING_EPOCH_COUNT = internal global ptr @.str.194, align 8
@_ZL36LLM_KV_TRAINING_SHUFFLE_SAMPLES_HASH = internal global ptr @.str.195, align 8
@_ZL33LLM_KV_TRAINING_SHUFFLE_RNG_STATE = internal global ptr @.str.196, align 8
@_ZL36LLM_KV_TRAINING_SHUFFLE_SAMPLE_COUNT = internal global ptr @.str.197, align 8
@_ZL35LLM_KV_TRAINING_SHUFFLE_NEXT_SAMPLE = internal global ptr @.str.198, align 8

; Function Attrs: mustprogress uwtable
define void @_Z21save_train_state_ggufP12gguf_contextP11train_state(ptr noundef %fctx, ptr noundef %train) #4 {
entry:
  %fctx.addr = alloca ptr, align 8
  %train.addr = alloca ptr, align 8
  store ptr %fctx, ptr %fctx.addr, align 8
  store ptr %train, ptr %train.addr, align 8
  %0 = load ptr, ptr %fctx.addr, align 8
  %1 = load ptr, ptr @_ZL28LLM_KV_TRAINING_FILE_VERSION, align 8
  call void @gguf_set_val_u32(ptr noundef %0, ptr noundef %1, i32 noundef 1)
  %2 = load ptr, ptr %fctx.addr, align 8
  %3 = load ptr, ptr @_ZL31LLM_KV_TRAINING_ITERATION_COUNT, align 8
  %4 = load ptr, ptr %train.addr, align 8
  %train_its = getelementptr inbounds %struct.train_state, ptr %4, i32 0, i32 1
  %5 = load i64, ptr %train_its, align 8
  call void @gguf_set_val_u64(ptr noundef %2, ptr noundef %3, i64 noundef %5)
  %6 = load ptr, ptr %fctx.addr, align 8
  %7 = load ptr, ptr @_ZL28LLM_KV_TRAINING_SAMPLE_COUNT, align 8
  %8 = load ptr, ptr %train.addr, align 8
  %train_samples = getelementptr inbounds %struct.train_state, ptr %8, i32 0, i32 2
  %9 = load i64, ptr %train_samples, align 8
  call void @gguf_set_val_u64(ptr noundef %6, ptr noundef %7, i64 noundef %9)
  %10 = load ptr, ptr %fctx.addr, align 8
  %11 = load ptr, ptr @_ZL27LLM_KV_TRAINING_TOKEN_COUNT, align 8
  %12 = load ptr, ptr %train.addr, align 8
  %train_tokens = getelementptr inbounds %struct.train_state, ptr %12, i32 0, i32 3
  %13 = load i64, ptr %train_tokens, align 8
  call void @gguf_set_val_u64(ptr noundef %10, ptr noundef %11, i64 noundef %13)
  %14 = load ptr, ptr %fctx.addr, align 8
  %15 = load ptr, ptr @_ZL27LLM_KV_TRAINING_EPOCH_COUNT, align 8
  %16 = load ptr, ptr %train.addr, align 8
  %train_epochs = getelementptr inbounds %struct.train_state, ptr %16, i32 0, i32 4
  %17 = load i64, ptr %train_epochs, align 8
  call void @gguf_set_val_u64(ptr noundef %14, ptr noundef %15, i64 noundef %17)
  %18 = load ptr, ptr %fctx.addr, align 8
  %19 = load ptr, ptr @_ZL36LLM_KV_TRAINING_SHUFFLE_SAMPLES_HASH, align 8
  %20 = load ptr, ptr %train.addr, align 8
  %shuffle_samples_hash = getelementptr inbounds %struct.train_state, ptr %20, i32 0, i32 5
  %21 = load i64, ptr %shuffle_samples_hash, align 8
  call void @gguf_set_val_u64(ptr noundef %18, ptr noundef %19, i64 noundef %21)
  %22 = load ptr, ptr %fctx.addr, align 8
  %23 = load ptr, ptr @_ZL33LLM_KV_TRAINING_SHUFFLE_RNG_STATE, align 8
  %24 = load ptr, ptr %train.addr, align 8
  %shuffle_rng_state_current = getelementptr inbounds %struct.train_state, ptr %24, i32 0, i32 6
  %call = call noundef ptr @_ZNKSt7__cxx1112basic_stringIcSt11char_traitsIcESaIcEE5c_strEv(ptr noundef nonnull align 8 dereferenceable(32) %shuffle_rng_state_current) #3
  call void @gguf_set_val_str(ptr noundef %22, ptr noundef %23, ptr noundef %call)
  %25 = load ptr, ptr %fctx.addr, align 8
  %26 = load ptr, ptr @_ZL36LLM_KV_TRAINING_SHUFFLE_SAMPLE_COUNT, align 8
  %27 = load ptr, ptr %train.addr, align 8
  %shuffle_sample_count = getelementptr inbounds %struct.train_state, ptr %27, i32 0, i32 8
  %28 = load i64, ptr %shuffle_sample_count, align 8
  call void @gguf_set_val_u64(ptr noundef %25, ptr noundef %26, i64 noundef %28)
  %29 = load ptr, ptr %fctx.addr, align 8
  %30 = load ptr, ptr @_ZL35LLM_KV_TRAINING_SHUFFLE_NEXT_SAMPLE, align 8
  %31 = load ptr, ptr %train.addr, align 8
  %shuffle_next_sample = getelementptr inbounds %struct.train_state, ptr %31, i32 0, i32 9
  %32 = load i64, ptr %shuffle_next_sample, align 8
  call void @gguf_set_val_u64(ptr noundef %29, ptr noundef %30, i64 noundef %32)
  %33 = load ptr, ptr %fctx.addr, align 8
  %34 = load ptr, ptr %train.addr, align 8
  %opt = getelementptr inbounds %struct.train_state, ptr %34, i32 0, i32 0
  %35 = load ptr, ptr %opt, align 8
  call void @_Z21save_opt_context_ggufP12gguf_contextP16ggml_opt_context(ptr noundef %33, ptr noundef %35)
  ret void
}