; Function Attrs: mustprogress uwtable
define void @_Z21save_train_state_ggufP12gguf_contextP11train_state(ptr noundef %fctx, ptr noundef %train) local_unnamed_addr #3 {
entry:
  tail call void @gguf_set_val_u32(ptr noundef %fctx, ptr noundef nonnull @.str.190, i32 noundef 1)
  %train_its = getelementptr inbounds nuw i8, ptr %train, i64 8
  %0 = load i64, ptr %train_its, align 8
  tail call void @gguf_set_val_u64(ptr noundef %fctx, ptr noundef nonnull @.str.191, i64 noundef %0)
  %train_samples = getelementptr inbounds nuw i8, ptr %train, i64 16
  %1 = load i64, ptr %train_samples, align 8
  tail call void @gguf_set_val_u64(ptr noundef %fctx, ptr noundef nonnull @.str.192, i64 noundef %1)
  %train_tokens = getelementptr inbounds nuw i8, ptr %train, i64 24
  %2 = load i64, ptr %train_tokens, align 8
  tail call void @gguf_set_val_u64(ptr noundef %fctx, ptr noundef nonnull @.str.193, i64 noundef %2)
  %train_epochs = getelementptr inbounds nuw i8, ptr %train, i64 32
  %3 = load i64, ptr %train_epochs, align 8
  tail call void @gguf_set_val_u64(ptr noundef %fctx, ptr noundef nonnull @.str.194, i64 noundef %3)
  %shuffle_samples_hash = getelementptr inbounds nuw i8, ptr %train, i64 40
  %4 = load i64, ptr %shuffle_samples_hash, align 8
  tail call void @gguf_set_val_u64(ptr noundef %fctx, ptr noundef nonnull @.str.195, i64 noundef %4)
  %shuffle_rng_state_current = getelementptr inbounds nuw i8, ptr %train, i64 48
  %call = tail call noundef ptr @_ZNKSt7__cxx1112basic_stringIcSt11char_traitsIcESaIcEE5c_strEv(ptr noundef nonnull align 8 dereferenceable(32) %shuffle_rng_state_current) #36
  tail call void @gguf_set_val_str(ptr noundef %fctx, ptr noundef nonnull @.str.196, ptr noundef %call)
  %shuffle_sample_count = getelementptr inbounds nuw i8, ptr %train, i64 112
  %5 = load i64, ptr %shuffle_sample_count, align 8
  tail call void @gguf_set_val_u64(ptr noundef %fctx, ptr noundef nonnull @.str.197, i64 noundef %5)
  %shuffle_next_sample = getelementptr inbounds nuw i8, ptr %train, i64 120
  %6 = load i64, ptr %shuffle_next_sample, align 8
  tail call void @gguf_set_val_u64(ptr noundef %fctx, ptr noundef nonnull @.str.198, i64 noundef %6)
  %7 = load ptr, ptr %train, align 8
  tail call void @_Z21save_opt_context_ggufP12gguf_contextP16ggml_opt_context(ptr noundef %fctx, ptr noundef %7)
  ret void
}